; Function Attrs: mustprogress nounwind uwtable
define hidden void @_ZN17AbstractAssemblerC2EP10CodeBuffer(ptr nocapture noundef nonnull writeonly align 8 dereferenceable(24) %0, ptr noundef %1) unnamed_addr #0 align 2 {
  store ptr getelementptr inbounds inrange(-16, 8) (i8, ptr @_ZTV17AbstractAssembler, i64 16), ptr %0, align 8
  %3 = icmp eq ptr %1, null
  br i1 %3, label %16, label %4

4:                                                ; preds = %2
  %5 = getelementptr inbounds i8, ptr %1, i64 96
  %6 = getelementptr inbounds i8, ptr %1, i64 104
  store ptr null, ptr %6, align 8
  %7 = load ptr, ptr %5, align 8
  %8 = icmp eq ptr %7, null
  br i1 %8, label %9, label %11

9:                                                ; preds = %4
  %10 = load ptr, ptr %1, align 8
  tail call void (ptr, i32, i64, i32, ptr, ...) @_Z23report_vm_out_of_memoryPKcim11VMErrorTypeS0_z(ptr noundef nonnull @.str, i32 noundef 49, i64 noundef 0, i32 noundef -536870910, ptr noundef nonnull @.str.4, ptr noundef %10) #9
  unreachable

11:                                               ; preds = %4
  %12 = getelementptr inbounds i8, ptr %0, i64 8
  store ptr %5, ptr %12, align 8
  %13 = getelementptr inbounds i8, ptr %1, i64 304
  %14 = load ptr, ptr %13, align 8
  %15 = getelementptr inbounds i8, ptr %0, i64 16
  store ptr %14, ptr %15, align 8
  br label %16

16:                                               ; preds = %2, %11
  ret void
}